target datalayout = "e-m:e-p270:32:32-p271:32:32-p272:64:64-i64:64-i128:128-f80:128-n8:16:32:64-S128"
target triple = "x86_64-pc-linux-gnu"

%struct.PQExpBufferData = type { ptr, i64, i64 }

; Function Attrs: nounwind uwtable
define internal ptr @gather_boolean_expression(ptr noundef %0) #0 {
  %2 = alloca ptr, align 8
  %3 = alloca ptr, align 8
  %4 = alloca i32, align 4
  %5 = alloca ptr, align 8
  store ptr %0, ptr %2, align 8
  call void @llvm.lifetime.start.p0(i64 8, ptr %3) #10
  %6 = call ptr @createPQExpBuffer()
  store ptr %6, ptr %3, align 8
  call void @llvm.lifetime.start.p0(i64 4, ptr %4) #10
  store i32 0, ptr %4, align 4
  call void @llvm.lifetime.start.p0(i64 8, ptr %5) #10
  br label %7

7:                                                ; preds = %16, %1
  %8 = load ptr, ptr %2, align 8
  %9 = call ptr @psql_scan_slash_option(ptr noundef %8, i32 noundef 0, ptr noundef null, i1 noundef zeroext false)
  store ptr %9, ptr %5, align 8
  %10 = icmp ne ptr %9, null
  br i1 %10, label %11, label %22

11:                                               ; preds = %7
  %12 = load i32, ptr %4, align 4
  %13 = icmp sgt i32 %12, 0
  br i1 %13, label %14, label %16

14:                                               ; preds = %11
  %15 = load ptr, ptr %3, align 8
  call void @appendPQExpBufferChar(ptr noundef %15, i8 noundef signext 32)
  br label %16

16:                                               ; preds = %14, %11
  %17 = load ptr, ptr %3, align 8
  %18 = load ptr, ptr %5, align 8
  call void @appendPQExpBufferStr(ptr noundef %17, ptr noundef %18)
  %19 = load i32, ptr %4, align 4
  %20 = add i32 %19, 1
  store i32 %20, ptr %4, align 4
  %21 = load ptr, ptr %5, align 8
  call void @free(ptr noundef %21) #10
  br label %7, !llvm.loop !28

22:                                               ; preds = %7
  %23 = load ptr, ptr %3, align 8
  call void @llvm.lifetime.end.p0(i64 8, ptr %5) #10
  call void @llvm.lifetime.end.p0(i64 4, ptr %4) #10
  call void @llvm.lifetime.end.p0(i64 8, ptr %3) #10
  ret ptr %23
}

; Function Attrs: nounwind uwtable
define internal zeroext i1 @is_true_boolean_expression(ptr noundef %0, ptr noundef %1) #0 {
  %3 = alloca ptr, align 8
  %4 = alloca ptr, align 8
  %5 = alloca ptr, align 8
  %6 = alloca i8, align 1
  %7 = alloca i8, align 1
  store ptr %0, ptr %3, align 8
  store ptr %1, ptr %4, align 8
  call void @llvm.lifetime.start.p0(i64 8, ptr %5) #10
  %8 = load ptr, ptr %3, align 8
  %9 = call ptr @gather_boolean_expression(ptr noundef %8)
  store ptr %9, ptr %5, align 8
  call void @llvm.lifetime.start.p0(i64 1, ptr %6) #10
  store i8 0, ptr %6, align 1
  call void @llvm.lifetime.start.p0(i64 1, ptr %7) #10
  %10 = load ptr, ptr %5, align 8
  %11 = getelementptr inbounds nuw %struct.PQExpBufferData, ptr %10, i32 0, i32 0
  %12 = load ptr, ptr %11, align 8
  %13 = load ptr, ptr %4, align 8
  %14 = call zeroext i1 @ParseVariableBool(ptr noundef %12, ptr noundef %13, ptr noundef %6)
  %15 = zext i1 %14 to i8
  store i8 %15, ptr %7, align 1
  %16 = load ptr, ptr %5, align 8
  call void @destroyPQExpBuffer(ptr noundef %16)
  %17 = load i8, ptr %7, align 1, !range !4, !noundef !5
  %18 = trunc i8 %17 to i1
  br i1 %18, label %19, label %22

19:                                               ; preds = %2
  %20 = load i8, ptr %6, align 1, !range !4, !noundef !5
  %21 = trunc i8 %20 to i1
  br label %22

22:                                               ; preds = %19, %2
  %23 = phi i1 [ false, %2 ], [ %21, %19 ]
  call void @llvm.lifetime.end.p0(i64 1, ptr %7) #10
  call void @llvm.lifetime.end.p0(i64 1, ptr %6) #10
  call void @llvm.lifetime.end.p0(i64 8, ptr %5) #10
  ret i1 %23
}