; Function Attrs: nounwind uwtable
define internal fastcc zeroext i1 @is_true_boolean_expression(ptr noundef %0, ptr noundef %1) unnamed_addr #0 {
  %3 = alloca i8, align 1
  %4 = tail call ptr @createPQExpBuffer() #16
  %5 = tail call ptr @psql_scan_slash_option(ptr noundef %0, i32 noundef 0, ptr noundef null, i1 noundef zeroext false) #16
  %.not8.i = icmp eq ptr %5, null
  br i1 %.not8.i, label %gather_boolean_expression.exit, label %.lr.ph.i

.lr.ph.i:                                         ; preds = %2, %9
  %6 = phi ptr [ %11, %9 ], [ %5, %2 ]
  %.09.i = phi i32 [ %10, %9 ], [ 0, %2 ]
  %7 = icmp sgt i32 %.09.i, 0
  br i1 %7, label %8, label %9

8:                                                ; preds = %.lr.ph.i
  tail call void @appendPQExpBufferChar(ptr noundef %4, i8 noundef signext 32) #16
  br label %9

9:                                                ; preds = %8, %.lr.ph.i
  tail call void @appendPQExpBufferStr(ptr noundef %4, ptr noundef nonnull %6) #16
  %10 = add i32 %.09.i, 1
  tail call void @free(ptr noundef nonnull %6) #16
  %11 = tail call ptr @psql_scan_slash_option(ptr noundef %0, i32 noundef 0, ptr noundef null, i1 noundef zeroext false) #16
  %.not.i = icmp eq ptr %11, null
  br i1 %.not.i, label %gather_boolean_expression.exit, label %.lr.ph.i, !llvm.loop !31

gather_boolean_expression.exit:                   ; preds = %9, %2
  call void @llvm.lifetime.start.p0(i64 1, ptr nonnull %3) #16
  store i8 0, ptr %3, align 1
  %12 = load ptr, ptr %4, align 8
  %13 = call zeroext i1 @ParseVariableBool(ptr noundef %12, ptr noundef %1, ptr noundef nonnull %3) #16
  call void @destroyPQExpBuffer(ptr noundef nonnull %4) #16
  %14 = load i8, ptr %3, align 1, !range !4
  %15 = trunc nuw i8 %14 to i1
  %16 = select i1 %13, i1 %15, i1 false
  call void @llvm.lifetime.end.p0(i64 1, ptr nonnull %3) #16
  ret i1 %16
}